target datalayout = "e-m:e-p270:32:32-p271:32:32-p272:64:64-i64:64-i128:128-f80:128-n8:16:32:64-S128"
target triple = "x86_64-pc-linux-gnu"

%struct.CvMat = type { i32, i32, ptr, i32, %union.anon, %union.anon.0, %union.anon.1 }
%union.anon = type { ptr }
%union.anon.0 = type { i32 }
%union.anon.1 = type { i32 }

; Function Attrs: inlinehint mustprogress nounwind uwtable
define internal void @_ZL6cvmSetP5CvMatiid(ptr noundef %0, i32 noundef %1, i32 noundef %2, double noundef %3) #6 {
  %5 = alloca ptr, align 8
  %6 = alloca i32, align 4
  %7 = alloca i32, align 4
  %8 = alloca double, align 8
  %9 = alloca i32, align 4
  store ptr %0, ptr %5, align 8, !tbaa !68
  store i32 %1, ptr %6, align 4, !tbaa !10
  store i32 %2, ptr %7, align 4, !tbaa !10
  store double %3, ptr %8, align 8, !tbaa !40
  call void @llvm.lifetime.start.p0(i64 4, ptr %9) #3
  %10 = load ptr, ptr %5, align 8, !tbaa !68
  %11 = getelementptr inbounds nuw %struct.CvMat, ptr %10, i32 0, i32 0
  %12 = load i32, ptr %11, align 8, !tbaa !76
  %13 = and i32 %12, 4095
  store i32 %13, ptr %9, align 4, !tbaa !10
  %14 = load i32, ptr %9, align 4, !tbaa !10
  %15 = icmp eq i32 %14, 5
  br i1 %15, label %16, label %33

16:                                               ; preds = %4
  %17 = load double, ptr %8, align 8, !tbaa !40
  %18 = fptrunc double %17 to float
  %19 = load ptr, ptr %5, align 8, !tbaa !68
  %20 = getelementptr inbounds nuw %struct.CvMat, ptr %19, i32 0, i32 4
  %21 = load ptr, ptr %20, align 8, !tbaa !70
  %22 = load ptr, ptr %5, align 8, !tbaa !68
  %23 = getelementptr inbounds nuw %struct.CvMat, ptr %22, i32 0, i32 1
  %24 = load i32, ptr %23, align 4, !tbaa !78
  %25 = sext i32 %24 to i64
  %26 = load i32, ptr %6, align 4, !tbaa !10
  %27 = sext i32 %26 to i64
  %28 = mul i64 %25, %27
  %29 = getelementptr inbounds nuw i8, ptr %21, i64 %28
  %30 = load i32, ptr %7, align 4, !tbaa !10
  %31 = sext i32 %30 to i64
  %32 = getelementptr inbounds float, ptr %29, i64 %31
  store float %18, ptr %32, align 4, !tbaa !34
  br label %49

33:                                               ; preds = %4
  %34 = load double, ptr %8, align 8, !tbaa !40
  %35 = load ptr, ptr %5, align 8, !tbaa !68
  %36 = getelementptr inbounds nuw %struct.CvMat, ptr %35, i32 0, i32 4
  %37 = load ptr, ptr %36, align 8, !tbaa !70
  %38 = load ptr, ptr %5, align 8, !tbaa !68
  %39 = getelementptr inbounds nuw %struct.CvMat, ptr %38, i32 0, i32 1
  %40 = load i32, ptr %39, align 4, !tbaa !78
  %41 = sext i32 %40 to i64
  %42 = load i32, ptr %6, align 4, !tbaa !10
  %43 = sext i32 %42 to i64
  %44 = mul i64 %41, %43
  %45 = getelementptr inbounds nuw i8, ptr %37, i64 %44
  %46 = load i32, ptr %7, align 4, !tbaa !10
  %47 = sext i32 %46 to i64
  %48 = getelementptr inbounds double, ptr %45, i64 %47
  store double %34, ptr %48, align 8, !tbaa !40
  br label %49

49:                                               ; preds = %33, %16
  call void @llvm.lifetime.end.p0(i64 4, ptr %9) #3
  ret void
}

; Function Attrs: mustprogress uwtable
define hidden void @_ZN2cv4epnp28compute_A_and_b_gauss_newtonEPKdS2_S2_P5CvMatS4_(ptr noundef nonnull align 8 dereferenceable(352) %0, ptr noundef %1, ptr noundef %2, ptr noundef %3, ptr noundef %4, ptr noundef %5) #4 align 2 {
  %7 = alloca ptr, align 8
  %8 = alloca ptr, align 8
  %9 = alloca ptr, align 8
  %10 = alloca ptr, align 8
  %11 = alloca ptr, align 8
  %12 = alloca ptr, align 8
  %13 = alloca i32, align 4
  %14 = alloca ptr, align 8
  %15 = alloca ptr, align 8
  store ptr %0, ptr %7, align 8, !tbaa !3
  store ptr %1, ptr %8, align 8, !tbaa !83
  store ptr %2, ptr %9, align 8, !tbaa !83
  store ptr %3, ptr %10, align 8, !tbaa !83
  store ptr %4, ptr %11, align 8, !tbaa !68
  store ptr %5, ptr %12, align 8, !tbaa !68
  call void @llvm.lifetime.start.p0(i64 4, ptr %13) #3
  store i32 0, ptr %13, align 4, !tbaa !10
  br label %16

16:                                               ; preds = %275, %6
  %17 = load i32, ptr %13, align 4, !tbaa !10
  %18 = icmp slt i32 %17, 6
  br i1 %18, label %20, label %19

19:                                               ; preds = %16
  call void @llvm.lifetime.end.p0(i64 4, ptr %13) #3
  br label %278

20:                                               ; preds = %16
  call void @llvm.lifetime.start.p0(i64 8, ptr %14) #3
  %21 = load ptr, ptr %8, align 8, !tbaa !83
  %22 = load i32, ptr %13, align 4, !tbaa !10
  %23 = mul nsw i32 %22, 10
  %24 = sext i32 %23 to i64
  %25 = getelementptr inbounds double, ptr %21, i64 %24
  store ptr %25, ptr %14, align 8, !tbaa !83
  call void @llvm.lifetime.start.p0(i64 8, ptr %15) #3
  %26 = load ptr, ptr %11, align 8, !tbaa !68
  %27 = getelementptr inbounds nuw %struct.CvMat, ptr %26, i32 0, i32 4
  %28 = load ptr, ptr %27, align 8, !tbaa !70
  %29 = load i32, ptr %13, align 4, !tbaa !10
  %30 = mul nsw i32 %29, 4
  %31 = sext i32 %30 to i64
  %32 = getelementptr inbounds double, ptr %28, i64 %31
  store ptr %32, ptr %15, align 8, !tbaa !83
  %33 = load ptr, ptr %14, align 8, !tbaa !83
  %34 = getelementptr inbounds double, ptr %33, i64 0
  %35 = load double, ptr %34, align 8, !tbaa !40
  %36 = fmul double 2.000000e+00, %35
  %37 = load ptr, ptr %10, align 8, !tbaa !83
  %38 = getelementptr inbounds double, ptr %37, i64 0
  %39 = load double, ptr %38, align 8, !tbaa !40
  %40 = load ptr, ptr %14, align 8, !tbaa !83
  %41 = getelementptr inbounds double, ptr %40, i64 1
  %42 = load double, ptr %41, align 8, !tbaa !40
  %43 = load ptr, ptr %10, align 8, !tbaa !83
  %44 = getelementptr inbounds double, ptr %43, i64 1
  %45 = load double, ptr %44, align 8, !tbaa !40
  %46 = fmul double %42, %45
  %47 = call double @llvm.fmuladd.f64(double %36, double %39, double %46)
  %48 = load ptr, ptr %14, align 8, !tbaa !83
  %49 = getelementptr inbounds double, ptr %48, i64 3
  %50 = load double, ptr %49, align 8, !tbaa !40
  %51 = load ptr, ptr %10, align 8, !tbaa !83
  %52 = getelementptr inbounds double, ptr %51, i64 2
  %53 = load double, ptr %52, align 8, !tbaa !40
  %54 = call double @llvm.fmuladd.f64(double %50, double %53, double %47)
  %55 = load ptr, ptr %14, align 8, !tbaa !83
  %56 = getelementptr inbounds double, ptr %55, i64 6
  %57 = load double, ptr %56, align 8, !tbaa !40
  %58 = load ptr, ptr %10, align 8, !tbaa !83
  %59 = getelementptr inbounds double, ptr %58, i64 3
  %60 = load double, ptr %59, align 8, !tbaa !40
  %61 = call double @llvm.fmuladd.f64(double %57, double %60, double %54)
  %62 = load ptr, ptr %15, align 8, !tbaa !83
  %63 = getelementptr inbounds double, ptr %62, i64 0
  store double %61, ptr %63, align 8, !tbaa !40
  %64 = load ptr, ptr %14, align 8, !tbaa !83
  %65 = getelementptr inbounds double, ptr %64, i64 1
  %66 = load double, ptr %65, align 8, !tbaa !40
  %67 = load ptr, ptr %10, align 8, !tbaa !83
  %68 = getelementptr inbounds double, ptr %67, i64 0
  %69 = load double, ptr %68, align 8, !tbaa !40
  %70 = load ptr, ptr %14, align 8, !tbaa !83
  %71 = getelementptr inbounds double, ptr %70, i64 2
  %72 = load double, ptr %71, align 8, !tbaa !40
  %73 = fmul double 2.000000e+00, %72
  %74 = load ptr, ptr %10, align 8, !tbaa !83
  %75 = getelementptr inbounds double, ptr %74, i64 1
  %76 = load double, ptr %75, align 8, !tbaa !40
  %77 = fmul double %73, %76
  %78 = call double @llvm.fmuladd.f64(double %66, double %69, double %77)
  %79 = load ptr, ptr %14, align 8, !tbaa !83
  %80 = getelementptr inbounds double, ptr %79, i64 4
  %81 = load double, ptr %80, align 8, !tbaa !40
  %82 = load ptr, ptr %10, align 8, !tbaa !83
  %83 = getelementptr inbounds double, ptr %82, i64 2
  %84 = load double, ptr %83, align 8, !tbaa !40
  %85 = call double @llvm.fmuladd.f64(double %81, double %84, double %78)
  %86 = load ptr, ptr %14, align 8, !tbaa !83
  %87 = getelementptr inbounds double, ptr %86, i64 7
  %88 = load double, ptr %87, align 8, !tbaa !40
  %89 = load ptr, ptr %10, align 8, !tbaa !83
  %90 = getelementptr inbounds double, ptr %89, i64 3
  %91 = load double, ptr %90, align 8, !tbaa !40
  %92 = call double @llvm.fmuladd.f64(double %88, double %91, double %85)
  %93 = load ptr, ptr %15, align 8, !tbaa !83
  %94 = getelementptr inbounds double, ptr %93, i64 1
  store double %92, ptr %94, align 8, !tbaa !40
  %95 = load ptr, ptr %14, align 8, !tbaa !83
  %96 = getelementptr inbounds double, ptr %95, i64 3
  %97 = load double, ptr %96, align 8, !tbaa !40
  %98 = load ptr, ptr %10, align 8, !tbaa !83
  %99 = getelementptr inbounds double, ptr %98, i64 0
  %100 = load double, ptr %99, align 8, !tbaa !40
  %101 = load ptr, ptr %14, align 8, !tbaa !83
  %102 = getelementptr inbounds double, ptr %101, i64 4
  %103 = load double, ptr %102, align 8, !tbaa !40
  %104 = load ptr, ptr %10, align 8, !tbaa !83
  %105 = getelementptr inbounds double, ptr %104, i64 1
  %106 = load double, ptr %105, align 8, !tbaa !40
  %107 = fmul double %103, %106
  %108 = call double @llvm.fmuladd.f64(double %97, double %100, double %107)
  %109 = load ptr, ptr %14, align 8, !tbaa !83
  %110 = getelementptr inbounds double, ptr %109, i64 5
  %111 = load double, ptr %110, align 8, !tbaa !40
  %112 = fmul double 2.000000e+00, %111
  %113 = load ptr, ptr %10, align 8, !tbaa !83
  %114 = getelementptr inbounds double, ptr %113, i64 2
  %115 = load double, ptr %114, align 8, !tbaa !40
  %116 = call double @llvm.fmuladd.f64(double %112, double %115, double %108)
  %117 = load ptr, ptr %14, align 8, !tbaa !83
  %118 = getelementptr inbounds double, ptr %117, i64 8
  %119 = load double, ptr %118, align 8, !tbaa !40
  %120 = load ptr, ptr %10, align 8, !tbaa !83
  %121 = getelementptr inbounds double, ptr %120, i64 3
  %122 = load double, ptr %121, align 8, !tbaa !40
  %123 = call double @llvm.fmuladd.f64(double %119, double %122, double %116)
  %124 = load ptr, ptr %15, align 8, !tbaa !83
  %125 = getelementptr inbounds double, ptr %124, i64 2
  store double %123, ptr %125, align 8, !tbaa !40
  %126 = load ptr, ptr %14, align 8, !tbaa !83
  %127 = getelementptr inbounds double, ptr %126, i64 6
  %128 = load double, ptr %127, align 8, !tbaa !40
  %129 = load ptr, ptr %10, align 8, !tbaa !83
  %130 = getelementptr inbounds double, ptr %129, i64 0
  %131 = load double, ptr %130, align 8, !tbaa !40
  %132 = load ptr, ptr %14, align 8, !tbaa !83
  %133 = getelementptr inbounds double, ptr %132, i64 7
  %134 = load double, ptr %133, align 8, !tbaa !40
  %135 = load ptr, ptr %10, align 8, !tbaa !83
  %136 = getelementptr inbounds double, ptr %135, i64 1
  %137 = load double, ptr %136, align 8, !tbaa !40
  %138 = fmul double %134, %137
  %139 = call double @llvm.fmuladd.f64(double %128, double %131, double %138)
  %140 = load ptr, ptr %14, align 8, !tbaa !83
  %141 = getelementptr inbounds double, ptr %140, i64 8
  %142 = load double, ptr %141, align 8, !tbaa !40
  %143 = load ptr, ptr %10, align 8, !tbaa !83
  %144 = getelementptr inbounds double, ptr %143, i64 2
  %145 = load double, ptr %144, align 8, !tbaa !40
  %146 = call double @llvm.fmuladd.f64(double %142, double %145, double %139)
  %147 = load ptr, ptr %14, align 8, !tbaa !83
  %148 = getelementptr inbounds double, ptr %147, i64 9
  %149 = load double, ptr %148, align 8, !tbaa !40
  %150 = fmul double 2.000000e+00, %149
  %151 = load ptr, ptr %10, align 8, !tbaa !83
  %152 = getelementptr inbounds double, ptr %151, i64 3
  %153 = load double, ptr %152, align 8, !tbaa !40
  %154 = call double @llvm.fmuladd.f64(double %150, double %153, double %146)
  %155 = load ptr, ptr %15, align 8, !tbaa !83
  %156 = getelementptr inbounds double, ptr %155, i64 3
  store double %154, ptr %156, align 8, !tbaa !40
  %157 = load ptr, ptr %12, align 8, !tbaa !68
  %158 = load i32, ptr %13, align 4, !tbaa !10
  %159 = load ptr, ptr %9, align 8, !tbaa !83
  %160 = load i32, ptr %13, align 4, !tbaa !10
  %161 = sext i32 %160 to i64
  %162 = getelementptr inbounds double, ptr %159, i64 %161
  %163 = load double, ptr %162, align 8, !tbaa !40
  %164 = load ptr, ptr %14, align 8, !tbaa !83
  %165 = getelementptr inbounds double, ptr %164, i64 0
  %166 = load double, ptr %165, align 8, !tbaa !40
  %167 = load ptr, ptr %10, align 8, !tbaa !83
  %168 = getelementptr inbounds double, ptr %167, i64 0
  %169 = load double, ptr %168, align 8, !tbaa !40
  %170 = fmul double %166, %169
  %171 = load ptr, ptr %10, align 8, !tbaa !83
  %172 = getelementptr inbounds double, ptr %171, i64 0
  %173 = load double, ptr %172, align 8, !tbaa !40
  %174 = load ptr, ptr %14, align 8, !tbaa !83
  %175 = getelementptr inbounds double, ptr %174, i64 1
  %176 = load double, ptr %175, align 8, !tbaa !40
  %177 = load ptr, ptr %10, align 8, !tbaa !83
  %178 = getelementptr inbounds double, ptr %177, i64 0
  %179 = load double, ptr %178, align 8, !tbaa !40
  %180 = fmul double %176, %179
  %181 = load ptr, ptr %10, align 8, !tbaa !83
  %182 = getelementptr inbounds double, ptr %181, i64 1
  %183 = load double, ptr %182, align 8, !tbaa !40
  %184 = fmul double %180, %183
  %185 = call double @llvm.fmuladd.f64(double %170, double %173, double %184)
  %186 = load ptr, ptr %14, align 8, !tbaa !83
  %187 = getelementptr inbounds double, ptr %186, i64 2
  %188 = load double, ptr %187, align 8, !tbaa !40
  %189 = load ptr, ptr %10, align 8, !tbaa !83
  %190 = getelementptr inbounds double, ptr %189, i64 1
  %191 = load double, ptr %190, align 8, !tbaa !40
  %192 = fmul double %188, %191
  %193 = load ptr, ptr %10, align 8, !tbaa !83
  %194 = getelementptr inbounds double, ptr %193, i64 1
  %195 = load double, ptr %194, align 8, !tbaa !40
  %196 = call double @llvm.fmuladd.f64(double %192, double %195, double %185)
  %197 = load ptr, ptr %14, align 8, !tbaa !83
  %198 = getelementptr inbounds double, ptr %197, i64 3
  %199 = load double, ptr %198, align 8, !tbaa !40
  %200 = load ptr, ptr %10, align 8, !tbaa !83
  %201 = getelementptr inbounds double, ptr %200, i64 0
  %202 = load double, ptr %201, align 8, !tbaa !40
  %203 = fmul double %199, %202
  %204 = load ptr, ptr %10, align 8, !tbaa !83
  %205 = getelementptr inbounds double, ptr %204, i64 2
  %206 = load double, ptr %205, align 8, !tbaa !40
  %207 = call double @llvm.fmuladd.f64(double %203, double %206, double %196)
  %208 = load ptr, ptr %14, align 8, !tbaa !83
  %209 = getelementptr inbounds double, ptr %208, i64 4
  %210 = load double, ptr %209, align 8, !tbaa !40
  %211 = load ptr, ptr %10, align 8, !tbaa !83
  %212 = getelementptr inbounds double, ptr %211, i64 1
  %213 = load double, ptr %212, align 8, !tbaa !40
  %214 = fmul double %210, %213
  %215 = load ptr, ptr %10, align 8, !tbaa !83
  %216 = getelementptr inbounds double, ptr %215, i64 2
  %217 = load double, ptr %216, align 8, !tbaa !40
  %218 = call double @llvm.fmuladd.f64(double %214, double %217, double %207)
  %219 = load ptr, ptr %14, align 8, !tbaa !83
  %220 = getelementptr inbounds double, ptr %219, i64 5
  %221 = load double, ptr %220, align 8, !tbaa !40
  %222 = load ptr, ptr %10, align 8, !tbaa !83
  %223 = getelementptr inbounds double, ptr %222, i64 2
  %224 = load double, ptr %223, align 8, !tbaa !40
  %225 = fmul double %221, %224
  %226 = load ptr, ptr %10, align 8, !tbaa !83
  %227 = getelementptr inbounds double, ptr %226, i64 2
  %228 = load double, ptr %227, align 8, !tbaa !40
  %229 = call double @llvm.fmuladd.f64(double %225, double %228, double %218)
  %230 = load ptr, ptr %14, align 8, !tbaa !83
  %231 = getelementptr inbounds double, ptr %230, i64 6
  %232 = load double, ptr %231, align 8, !tbaa !40
  %233 = load ptr, ptr %10, align 8, !tbaa !83
  %234 = getelementptr inbounds double, ptr %233, i64 0
  %235 = load double, ptr %234, align 8, !tbaa !40
  %236 = fmul double %232, %235
  %237 = load ptr, ptr %10, align 8, !tbaa !83
  %238 = getelementptr inbounds double, ptr %237, i64 3
  %239 = load double, ptr %238, align 8, !tbaa !40
  %240 = call double @llvm.fmuladd.f64(double %236, double %239, double %229)
  %241 = load ptr, ptr %14, align 8, !tbaa !83
  %242 = getelementptr inbounds double, ptr %241, i64 7
  %243 = load double, ptr %242, align 8, !tbaa !40
  %244 = load ptr, ptr %10, align 8, !tbaa !83
  %245 = getelementptr inbounds double, ptr %244, i64 1
  %246 = load double, ptr %245, align 8, !tbaa !40
  %247 = fmul double %243, %246
  %248 = load ptr, ptr %10, align 8, !tbaa !83
  %249 = getelementptr inbounds double, ptr %248, i64 3
  %250 = load double, ptr %249, align 8, !tbaa !40
  %251 = call double @llvm.fmuladd.f64(double %247, double %250, double %240)
  %252 = load ptr, ptr %14, align 8, !tbaa !83
  %253 = getelementptr inbounds double, ptr %252, i64 8
  %254 = load double, ptr %253, align 8, !tbaa !40
  %255 = load ptr, ptr %10, align 8, !tbaa !83
  %256 = getelementptr inbounds double, ptr %255, i64 2
  %257 = load double, ptr %256, align 8, !tbaa !40
  %258 = fmul double %254, %257
  %259 = load ptr, ptr %10, align 8, !tbaa !83
  %260 = getelementptr inbounds double, ptr %259, i64 3
  %261 = load double, ptr %260, align 8, !tbaa !40
  %262 = call double @llvm.fmuladd.f64(double %258, double %261, double %251)
  %263 = load ptr, ptr %14, align 8, !tbaa !83
  %264 = getelementptr inbounds double, ptr %263, i64 9
  %265 = load double, ptr %264, align 8, !tbaa !40
  %266 = load ptr, ptr %10, align 8, !tbaa !83
  %267 = getelementptr inbounds double, ptr %266, i64 3
  %268 = load double, ptr %267, align 8, !tbaa !40
  %269 = fmul double %265, %268
  %270 = load ptr, ptr %10, align 8, !tbaa !83
  %271 = getelementptr inbounds double, ptr %270, i64 3
  %272 = load double, ptr %271, align 8, !tbaa !40
  %273 = call double @llvm.fmuladd.f64(double %269, double %272, double %262)
  %274 = fsub double %163, %273
  call void @_ZL6cvmSetP5CvMatiid(ptr noundef %157, i32 noundef %158, i32 noundef 0, double noundef %274)
  call void @llvm.lifetime.end.p0(i64 8, ptr %15) #3
  call void @llvm.lifetime.end.p0(i64 8, ptr %14) #3
  br label %275

275:                                              ; preds = %20
  %276 = load i32, ptr %13, align 4, !tbaa !10
  %277 = add nsw i32 %276, 1
  store i32 %277, ptr %13, align 4, !tbaa !10
  br label %16, !llvm.loop !119

278:                                              ; preds = %19
  ret void
}