; Function Attrs: mustprogress nofree norecurse nosync nounwind memory(write, argmem: readwrite, inaccessiblemem: none) uwtable
define hidden void @_ZN2cv4epnp28compute_A_and_b_gauss_newtonEPKdS2_S2_P5CvMatS4_(ptr nonnull readnone align 8 captures(none) %0, ptr noundef readonly captures(none) %1, ptr noundef readonly captures(none) %2, ptr noundef readonly captures(none) %3, ptr noundef readonly captures(none) %4, ptr noundef readonly captures(none) %5) local_unnamed_addr #10 align 2 {
  %7 = getelementptr inbounds nuw i8, ptr %4, i64 24
  %8 = getelementptr inbounds nuw i8, ptr %3, i64 8
  %9 = getelementptr inbounds nuw i8, ptr %3, i64 16
  %10 = getelementptr inbounds nuw i8, ptr %3, i64 24
  %11 = load i32, ptr %5, align 8, !tbaa !64
  %12 = and i32 %11, 4095
  %13 = icmp eq i32 %12, 5
  %14 = getelementptr inbounds nuw i8, ptr %5, i64 24
  %15 = getelementptr inbounds nuw i8, ptr %5, i64 4
  br label %17

16:                                               ; preds = %_ZL6cvmSetP5CvMatiid.exit
  ret void

17:                                               ; preds = %6, %_ZL6cvmSetP5CvMatiid.exit
  %indvars.iv = phi i64 [ 0, %6 ], [ %indvars.iv.next, %_ZL6cvmSetP5CvMatiid.exit ]
  %.idx = mul nuw nsw i64 %indvars.iv, 80
  %18 = getelementptr inbounds nuw i8, ptr %1, i64 %.idx
  %19 = load ptr, ptr %7, align 8, !tbaa !69
  %.idx77 = shl nuw nsw i64 %indvars.iv, 5
  %20 = getelementptr inbounds nuw i8, ptr %19, i64 %.idx77
  %21 = load double, ptr %18, align 8, !tbaa !32
  %22 = fmul double %21, 2.000000e+00
  %23 = load double, ptr %3, align 8, !tbaa !32
  %24 = getelementptr inbounds nuw i8, ptr %18, i64 8
  %25 = load double, ptr %24, align 8, !tbaa !32
  %26 = load double, ptr %8, align 8, !tbaa !32
  %27 = fmul double %25, %26
  %28 = tail call double @llvm.fmuladd.f64(double %22, double %23, double %27)
  %29 = getelementptr inbounds nuw i8, ptr %18, i64 24
  %30 = load double, ptr %29, align 8, !tbaa !32
  %31 = load double, ptr %9, align 8, !tbaa !32
  %32 = tail call double @llvm.fmuladd.f64(double %30, double %31, double %28)
  %33 = getelementptr inbounds nuw i8, ptr %18, i64 48
  %34 = load double, ptr %33, align 8, !tbaa !32
  %35 = load double, ptr %10, align 8, !tbaa !32
  %36 = tail call double @llvm.fmuladd.f64(double %34, double %35, double %32)
  store double %36, ptr %20, align 8, !tbaa !32
  %37 = load double, ptr %24, align 8, !tbaa !32
  %38 = load double, ptr %3, align 8, !tbaa !32
  %39 = getelementptr inbounds nuw i8, ptr %18, i64 16
  %40 = load double, ptr %39, align 8, !tbaa !32
  %41 = fmul double %40, 2.000000e+00
  %42 = load double, ptr %8, align 8, !tbaa !32
  %43 = fmul double %41, %42
  %44 = tail call double @llvm.fmuladd.f64(double %37, double %38, double %43)
  %45 = getelementptr inbounds nuw i8, ptr %18, i64 32
  %46 = load double, ptr %45, align 8, !tbaa !32
  %47 = load double, ptr %9, align 8, !tbaa !32
  %48 = tail call double @llvm.fmuladd.f64(double %46, double %47, double %44)
  %49 = getelementptr inbounds nuw i8, ptr %18, i64 56
  %50 = load double, ptr %49, align 8, !tbaa !32
  %51 = load double, ptr %10, align 8, !tbaa !32
  %52 = tail call double @llvm.fmuladd.f64(double %50, double %51, double %48)
  %53 = getelementptr inbounds nuw i8, ptr %20, i64 8
  store double %52, ptr %53, align 8, !tbaa !32
  %54 = load double, ptr %29, align 8, !tbaa !32
  %55 = load double, ptr %3, align 8, !tbaa !32
  %56 = load double, ptr %45, align 8, !tbaa !32
  %57 = load double, ptr %8, align 8, !tbaa !32
  %58 = fmul double %56, %57
  %59 = tail call double @llvm.fmuladd.f64(double %54, double %55, double %58)
  %60 = getelementptr inbounds nuw i8, ptr %18, i64 40
  %61 = load double, ptr %60, align 8, !tbaa !32
  %62 = fmul double %61, 2.000000e+00
  %63 = load double, ptr %9, align 8, !tbaa !32
  %64 = tail call double @llvm.fmuladd.f64(double %62, double %63, double %59)
  %65 = getelementptr inbounds nuw i8, ptr %18, i64 64
  %66 = load double, ptr %65, align 8, !tbaa !32
  %67 = load double, ptr %10, align 8, !tbaa !32
  %68 = tail call double @llvm.fmuladd.f64(double %66, double %67, double %64)
  %69 = getelementptr inbounds nuw i8, ptr %20, i64 16
  store double %68, ptr %69, align 8, !tbaa !32
  %70 = load double, ptr %33, align 8, !tbaa !32
  %71 = load double, ptr %3, align 8, !tbaa !32
  %72 = load double, ptr %49, align 8, !tbaa !32
  %73 = load double, ptr %8, align 8, !tbaa !32
  %74 = fmul double %72, %73
  %75 = tail call double @llvm.fmuladd.f64(double %70, double %71, double %74)
  %76 = load double, ptr %65, align 8, !tbaa !32
  %77 = load double, ptr %9, align 8, !tbaa !32
  %78 = tail call double @llvm.fmuladd.f64(double %76, double %77, double %75)
  %79 = getelementptr inbounds nuw i8, ptr %18, i64 72
  %80 = load double, ptr %79, align 8, !tbaa !32
  %81 = fmul double %80, 2.000000e+00
  %82 = load double, ptr %10, align 8, !tbaa !32
  %83 = tail call double @llvm.fmuladd.f64(double %81, double %82, double %78)
  %84 = getelementptr inbounds nuw i8, ptr %20, i64 24
  store double %83, ptr %84, align 8, !tbaa !32
  %85 = getelementptr inbounds nuw double, ptr %2, i64 %indvars.iv
  %86 = load double, ptr %85, align 8, !tbaa !32
  %87 = load double, ptr %18, align 8, !tbaa !32
  %88 = load double, ptr %3, align 8, !tbaa !32
  %89 = fmul double %87, %88
  %90 = load double, ptr %24, align 8, !tbaa !32
  %91 = fmul double %88, %90
  %92 = load double, ptr %8, align 8, !tbaa !32
  %93 = fmul double %91, %92
  %94 = tail call double @llvm.fmuladd.f64(double %89, double %88, double %93)
  %95 = load double, ptr %39, align 8, !tbaa !32
  %96 = fmul double %92, %95
  %97 = tail call double @llvm.fmuladd.f64(double %96, double %92, double %94)
  %98 = load double, ptr %29, align 8, !tbaa !32
  %99 = fmul double %88, %98
  %100 = load double, ptr %9, align 8, !tbaa !32
  %101 = tail call double @llvm.fmuladd.f64(double %99, double %100, double %97)
  %102 = load double, ptr %45, align 8, !tbaa !32
  %103 = fmul double %92, %102
  %104 = tail call double @llvm.fmuladd.f64(double %103, double %100, double %101)
  %105 = load double, ptr %60, align 8, !tbaa !32
  %106 = fmul double %100, %105
  %107 = tail call double @llvm.fmuladd.f64(double %106, double %100, double %104)
  %108 = load double, ptr %33, align 8, !tbaa !32
  %109 = fmul double %88, %108
  %110 = load double, ptr %10, align 8, !tbaa !32
  %111 = tail call double @llvm.fmuladd.f64(double %109, double %110, double %107)
  %112 = load double, ptr %49, align 8, !tbaa !32
  %113 = fmul double %92, %112
  %114 = tail call double @llvm.fmuladd.f64(double %113, double %110, double %111)
  %115 = load double, ptr %65, align 8, !tbaa !32
  %116 = fmul double %100, %115
  %117 = tail call double @llvm.fmuladd.f64(double %116, double %110, double %114)
  %118 = load double, ptr %79, align 8, !tbaa !32
  %119 = fmul double %110, %118
  %120 = tail call double @llvm.fmuladd.f64(double %119, double %110, double %117)
  %121 = fsub double %86, %120
  br i1 %13, label %122, label %129

122:                                              ; preds = %17
  %123 = fptrunc double %121 to float
  %124 = load ptr, ptr %14, align 8, !tbaa !69
  %125 = load i32, ptr %15, align 4, !tbaa !70
  %126 = sext i32 %125 to i64
  %127 = mul nsw i64 %indvars.iv, %126
  %128 = getelementptr inbounds nuw i8, ptr %124, i64 %127
  store float %123, ptr %128, align 4, !tbaa !18
  br label %_ZL6cvmSetP5CvMatiid.exit

129:                                              ; preds = %17
  %130 = load ptr, ptr %14, align 8, !tbaa !69
  %131 = load i32, ptr %15, align 4, !tbaa !70
  %132 = sext i32 %131 to i64
  %133 = mul nsw i64 %indvars.iv, %132
  %134 = getelementptr inbounds nuw i8, ptr %130, i64 %133
  store double %121, ptr %134, align 8, !tbaa !32
  br label %_ZL6cvmSetP5CvMatiid.exit

_ZL6cvmSetP5CvMatiid.exit:                        ; preds = %122, %129
  %indvars.iv.next = add nuw nsw i64 %indvars.iv, 1
  %exitcond.not = icmp eq i64 %indvars.iv.next, 6
  br i1 %exitcond.not, label %16, label %17, !llvm.loop !181
}